target datalayout = "e-m:e-p270:32:32-p271:32:32-p272:64:64-i64:64-f80:128-n8:16:32:64-S128"
target triple = "x86_64-pc-linux-gnu"

@.str = private unnamed_addr constant [6 x i8] c"%d %d\00", align 1
@.str.1 = private unnamed_addr constant [4 x i8] c"%d \00", align 1
@.str.2 = private unnamed_addr constant [4 x i8] c"%d\0A\00", align 1

; Function Attrs: noinline nounwind uwtable
define dso_local i32 @main() #0 {
  %1 = alloca i32, align 4
  %2 = alloca [11 x [11 x i32]], align 16
  %3 = alloca [11 x [11 x i32]], align 16
  %4 = alloca i32, align 4
  %5 = alloca i32, align 4
  %6 = alloca i32, align 4
  %7 = alloca i32, align 4
  %8 = alloca i32, align 4
  store i32 0, i32* %1, align 4
  %9 = bitcast [11 x [11 x i32]]* %2 to i8*
  call void @llvm.memset.p0i8.i64(i8* align 16 %9, i8 0, i64 484, i1 false)
  %10 = bitcast [11 x [11 x i32]]* %3 to i8*
  call void @llvm.memset.p0i8.i64(i8* align 16 %10, i8 0, i64 484, i1 false)
  %11 = call i32 (i8*, ...) @__isoc99_scanf(i8* getelementptr inbounds ([6 x i8], [6 x i8]* @.str, i64 0, i64 0), i32* %6, i32* %7)
  %12 = load i32, i32* %6, align 4
  %13 = getelementptr inbounds [11 x [11 x i32]], [11 x [11 x i32]]* %2, i64 0, i64 5
  %14 = getelementptr inbounds [11 x i32], [11 x i32]* %13, i64 0, i64 5
  store i32 %12, i32* %14, align 4
  store i32 1, i32* %8, align 4
  br label %15

15:                                               ; preds = %155, %0
  %16 = load i32, i32* %8, align 4
  %17 = load i32, i32* %7, align 4
  %18 = icmp sle i32 %16, %17
  br i1 %18, label %19, label %158

19:                                               ; preds = %15
  store i32 0, i32* %4, align 4
  br label %20

20:                                               ; preds = %45, %19
  %21 = load i32, i32* %4, align 4
  %22 = icmp slt i32 %21, 11
  br i1 %22, label %23, label %48

23:                                               ; preds = %20
  store i32 0, i32* %5, align 4
  br label %24

24:                                               ; preds = %41, %23
  %25 = load i32, i32* %5, align 4
  %26 = icmp slt i32 %25, 11
  br i1 %26, label %27, label %44

27:                                               ; preds = %24
  %28 = load i32, i32* %4, align 4
  %29 = sext i32 %28 to i64
  %30 = getelementptr inbounds [11 x [11 x i32]], [11 x [11 x i32]]* %2, i64 0, i64 %29
  %31 = load i32, i32* %5, align 4
  %32 = sext i32 %31 to i64
  %33 = getelementptr inbounds [11 x i32], [11 x i32]* %30, i64 0, i64 %32
  %34 = load i32, i32* %33, align 4
  %35 = load i32, i32* %4, align 4
  %36 = sext i32 %35 to i64
  %37 = getelementptr inbounds [11 x [11 x i32]], [11 x [11 x i32]]* %3, i64 0, i64 %36
  %38 = load i32, i32* %5, align 4
  %39 = sext i32 %38 to i64
  %40 = getelementptr inbounds [11 x i32], [11 x i32]* %37, i64 0, i64 %39
  store i32 %34, i32* %40, align 4
  br label %41

41:                                               ; preds = %27
  %42 = load i32, i32* %5, align 4
  %43 = add nsw i32 %42, 1
  store i32 %43, i32* %5, align 4
  br label %24

44:                                               ; preds = %24
  br label %45

45:                                               ; preds = %44
  %46 = load i32, i32* %4, align 4
  %47 = add nsw i32 %46, 1
  store i32 %47, i32* %4, align 4
  br label %20

48:                                               ; preds = %20
  store i32 1, i32* %4, align 4
  br label %49

49:                                               ; preds = %151, %48
  %50 = load i32, i32* %4, align 4
  %51 = icmp sle i32 %50, 9
  br i1 %51, label %52, label %154

52:                                               ; preds = %49
  store i32 1, i32* %5, align 4
  br label %53

53:                                               ; preds = %147, %52
  %54 = load i32, i32* %5, align 4
  %55 = icmp sle i32 %54, 9
  br i1 %55, label %56, label %150

56:                                               ; preds = %53
  %57 = load i32, i32* %4, align 4
  %58 = sext i32 %57 to i64
  %59 = getelementptr inbounds [11 x [11 x i32]], [11 x [11 x i32]]* %3, i64 0, i64 %58
  %60 = load i32, i32* %5, align 4
  %61 = sext i32 %60 to i64
  %62 = getelementptr inbounds [11 x i32], [11 x i32]* %59, i64 0, i64 %61
  %63 = load i32, i32* %62, align 4
  %64 = mul nsw i32 2, %63
  %65 = load i32, i32* %4, align 4
  %66 = sub nsw i32 %65, 1
  %67 = sext i32 %66 to i64
  %68 = getelementptr inbounds [11 x [11 x i32]], [11 x [11 x i32]]* %3, i64 0, i64 %67
  %69 = load i32, i32* %5, align 4
  %70 = sub nsw i32 %69, 1
  %71 = sext i32 %70 to i64
  %72 = getelementptr inbounds [11 x i32], [11 x i32]* %68, i64 0, i64 %71
  %73 = load i32, i32* %72, align 4
  %74 = add nsw i32 %64, %73
  %75 = load i32, i32* %4, align 4
  %76 = sub nsw i32 %75, 1
  %77 = sext i32 %76 to i64
  %78 = getelementptr inbounds [11 x [11 x i32]], [11 x [11 x i32]]* %3, i64 0, i64 %77
  %79 = load i32, i32* %5, align 4
  %80 = sext i32 %79 to i64
  %81 = getelementptr inbounds [11 x i32], [11 x i32]* %78, i64 0, i64 %80
  %82 = load i32, i32* %81, align 4
  %83 = add nsw i32 %74, %82
  %84 = load i32, i32* %4, align 4
  %85 = sub nsw i32 %84, 1
  %86 = sext i32 %85 to i64
  %87 = getelementptr inbounds [11 x [11 x i32]], [11 x [11 x i32]]* %3, i64 0, i64 %86
  %88 = load i32, i32* %5, align 4
  %89 = add nsw i32 %88, 1
  %90 = sext i32 %89 to i64
  %91 = getelementptr inbounds [11 x i32], [11 x i32]* %87, i64 0, i64 %90
  %92 = load i32, i32* %91, align 4
  %93 = add nsw i32 %83, %92
  %94 = load i32, i32* %4, align 4
  %95 = sext i32 %94 to i64
  %96 = getelementptr inbounds [11 x [11 x i32]], [11 x [11 x i32]]* %3, i64 0, i64 %95
  %97 = load i32, i32* %5, align 4
  %98 = sub nsw i32 %97, 1
  %99 = sext i32 %98 to i64
  %100 = getelementptr inbounds [11 x i32], [11 x i32]* %96, i64 0, i64 %99
  %101 = load i32, i32* %100, align 4
  %102 = add nsw i32 %93, %101
  %103 = load i32, i32* %4, align 4
  %104 = sext i32 %103 to i64
  %105 = getelementptr inbounds [11 x [11 x i32]], [11 x [11 x i32]]* %3, i64 0, i64 %104
  %106 = load i32, i32* %5, align 4
  %107 = add nsw i32 %106, 1
  %108 = sext i32 %107 to i64
  %109 = getelementptr inbounds [11 x i32], [11 x i32]* %105, i64 0, i64 %108
  %110 = load i32, i32* %109, align 4
  %111 = add nsw i32 %102, %110
  %112 = load i32, i32* %4, align 4
  %113 = add nsw i32 %112, 1
  %114 = sext i32 %113 to i64
  %115 = getelementptr inbounds [11 x [11 x i32]], [11 x [11 x i32]]* %3, i64 0, i64 %114
  %116 = load i32, i32* %5, align 4
  %117 = sub nsw i32 %116, 1
  %118 = sext i32 %117 to i64
  %119 = getelementptr inbounds [11 x i32], [11 x i32]* %115, i64 0, i64 %118
  %120 = load i32, i32* %119, align 4
  %121 = add nsw i32 %111, %120
  %122 = load i32, i32* %4, align 4
  %123 = add nsw i32 %122, 1
  %124 = sext i32 %123 to i64
  %125 = getelementptr inbounds [11 x [11 x i32]], [11 x [11 x i32]]* %3, i64 0, i64 %124
  %126 = load i32, i32* %5, align 4
  %127 = sext i32 %126 to i64
  %128 = getelementptr inbounds [11 x i32], [11 x i32]* %125, i64 0, i64 %127
  %129 = load i32, i32* %128, align 4
  %130 = add nsw i32 %121, %129
  %131 = load i32, i32* %4, align 4
  %132 = add nsw i32 %131, 1
  %133 = sext i32 %132 to i64
  %134 = getelementptr inbounds [11 x [11 x i32]], [11 x [11 x i32]]* %3, i64 0, i64 %133
  %135 = load i32, i32* %5, align 4
  %136 = add nsw i32 %135, 1
  %137 = sext i32 %136 to i64
  %138 = getelementptr inbounds [11 x i32], [11 x i32]* %134, i64 0, i64 %137
  %139 = load i32, i32* %138, align 4
  %140 = add nsw i32 %130, %139
  %141 = load i32, i32* %4, align 4
  %142 = sext i32 %141 to i64
  %143 = getelementptr inbounds [11 x [11 x i32]], [11 x [11 x i32]]* %2, i64 0, i64 %142
  %144 = load i32, i32* %5, align 4
  %145 = sext i32 %144 to i64
  %146 = getelementptr inbounds [11 x i32], [11 x i32]* %143, i64 0, i64 %145
  store i32 %140, i32* %146, align 4
  br label %147

147:                                              ; preds = %56
  %148 = load i32, i32* %5, align 4
  %149 = add nsw i32 %148, 1
  store i32 %149, i32* %5, align 4
  br label %53

150:                                              ; preds = %53
  br label %151

151:                                              ; preds = %150
  %152 = load i32, i32* %4, align 4
  %153 = add nsw i32 %152, 1
  store i32 %153, i32* %4, align 4
  br label %49

154:                                              ; preds = %49
  br label %155

155:                                              ; preds = %154
  %156 = load i32, i32* %8, align 4
  %157 = add nsw i32 %156, 1
  store i32 %157, i32* %8, align 4
  br label %15

158:                                              ; preds = %15
  store i32 1, i32* %4, align 4
  br label %159

159:                                              ; preds = %191, %158
  %160 = load i32, i32* %4, align 4
  %161 = icmp sle i32 %160, 9
  br i1 %161, label %162, label %194

162:                                              ; preds = %159
  store i32 1, i32* %5, align 4
  br label %163

163:                                              ; preds = %175, %162
  %164 = load i32, i32* %5, align 4
  %165 = icmp slt i32 %164, 9
  br i1 %165, label %166, label %178

166:                                              ; preds = %163
  %167 = load i32, i32* %4, align 4
  %168 = sext i32 %167 to i64
  %169 = getelementptr inbounds [11 x [11 x i32]], [11 x [11 x i32]]* %2, i64 0, i64 %168
  %170 = load i32, i32* %5, align 4
  %171 = sext i32 %170 to i64
  %172 = getelementptr inbounds [11 x i32], [11 x i32]* %169, i64 0, i64 %171
  %173 = load i32, i32* %172, align 4
  %174 = call i32 (i8*, ...) @printf(i8* getelementptr inbounds ([4 x i8], [4 x i8]* @.str.1, i64 0, i64 0), i32 %173)
  br label %175

175:                                              ; preds = %166
  %176 = load i32, i32* %5, align 4
  %177 = add nsw i32 %176, 1
  store i32 %177, i32* %5, align 4
  br label %163

178:                                              ; preds = %163
  %179 = load i32, i32* %5, align 4
  %180 = icmp eq i32 %179, 9
  br i1 %180, label %181, label %190

181:                                              ; preds = %178
  %182 = load i32, i32* %4, align 4
  %183 = sext i32 %182 to i64
  %184 = getelementptr inbounds [11 x [11 x i32]], [11 x [11 x i32]]* %2, i64 0, i64 %183
  %185 = load i32, i32* %5, align 4
  %186 = sext i32 %185 to i64
  %187 = getelementptr inbounds [11 x i32], [11 x i32]* %184, i64 0, i64 %186
  %188 = load i32, i32* %187, align 4
  %189 = call i32 (i8*, ...) @printf(i8* getelementptr inbounds ([4 x i8], [4 x i8]* @.str.2, i64 0, i64 0), i32 %188)
  br label %190

190:                                              ; preds = %181, %178
  br label %191

191:                                              ; preds = %190
  %192 = load i32, i32* %4, align 4
  %193 = add nsw i32 %192, 1
  store i32 %193, i32* %4, align 4
  br label %159

194:                                              ; preds = %159
  ret i32 0
}